target datalayout = "e-m:e-p270:32:32-p271:32:32-p272:64:64-i64:64-i128:128-f80:128-n8:16:32:64-S128"
target triple = "x86_64-pc-linux-gnu"

%"class.clang::QualType" = type { %"class.llvm::PointerIntPair.162" }
%"class.llvm::PointerIntPair.162" = type { %"struct.llvm::detail::PunnedPointer.163" }
%"struct.llvm::detail::PunnedPointer.163" = type { [8 x i8] }
%"class.clang::ExtQualsTypeCommonBase" = type { ptr, %"class.clang::QualType" }
%"class.clang::Type" = type { %"class.clang::ExtQualsTypeCommonBase", %union.anon.659, [8 x i8] }
%union.anon.659 = type { %"class.clang::Type::FunctionTypeBitfields" }
%"class.clang::Type::FunctionTypeBitfields" = type { i64 }
%"class.llvm::FoldingSetBase::Node" = type { ptr }
%"class.clang::Type.base" = type { %"class.clang::ExtQualsTypeCommonBase", %union.anon.659 }
%"class.clang::ArrayType" = type { %"class.clang::Type.base", %"class.llvm::FoldingSetBase::Node", %"class.clang::QualType", [8 x i8] }
%"class.clang::ConstantArrayType" = type { %"class.clang::ArrayType.base", %union.anon.1149 }
%"class.clang::ArrayType.base" = type { %"class.clang::Type.base", %"class.llvm::FoldingSetBase::Node", %"class.clang::QualType" }
%union.anon.1149 = type { i64 }
%"struct.clang::ConstantArrayType::ExternalSize" = type { %"class.llvm::APInt", ptr }
%"class.llvm::APInt" = type <{ %union.anon.1201, i32, [4 x i8] }>
%union.anon.1201 = type { i64 }

; Function Attrs: mustprogress nounwind uwtable
define internal noundef zeroext i1 @_ZN5clang19RecursiveASTVisitorIN12_GLOBAL__N_113EHCodeVisitorEE9VisitTypeEPNS_4TypeE(ptr noundef nonnull align 1 dereferenceable(1) %0, ptr noundef %1) #0 align 2 {
  %3 = alloca ptr, align 8
  %4 = alloca ptr, align 8
  store ptr %0, ptr %3, align 8
  store ptr %1, ptr %4, align 8
  ret i1 true
}

; Function Attrs: mustprogress nounwind uwtable
define internal noundef zeroext i1 @_ZN5clang19RecursiveASTVisitorIN12_GLOBAL__N_113EHCodeVisitorEE14VisitArrayTypeEPNS_9ArrayTypeE(ptr noundef nonnull align 1 dereferenceable(1) %0, ptr noundef %1) #0 align 2 {
  %3 = alloca ptr, align 8
  %4 = alloca ptr, align 8
  store ptr %0, ptr %3, align 8
  store ptr %1, ptr %4, align 8
  ret i1 true
}

; Function Attrs: mustprogress nounwind uwtable
define internal noundef zeroext i1 @_ZN5clang19RecursiveASTVisitorIN12_GLOBAL__N_113EHCodeVisitorEE14WalkUpFromTypeEPNS_4TypeE(ptr noundef nonnull align 1 dereferenceable(1) %0, ptr noundef %1) #0 align 2 {
  %3 = alloca ptr, align 8
  %4 = alloca ptr, align 8
  store ptr %0, ptr %3, align 8
  store ptr %1, ptr %4, align 8
  %5 = load ptr, ptr %3, align 8
  %6 = call noundef nonnull align 8 dereferenceable(16) ptr @_ZN5clang19RecursiveASTVisitorIN12_GLOBAL__N_113EHCodeVisitorEE10getDerivedEv(ptr noundef nonnull align 1 dereferenceable(1) %5)
  %7 = load ptr, ptr %4, align 8
  %8 = call noundef zeroext i1 @_ZN5clang19RecursiveASTVisitorIN12_GLOBAL__N_113EHCodeVisitorEE9VisitTypeEPNS_4TypeE(ptr noundef nonnull align 1 dereferenceable(1) %6, ptr noundef %7)
  ret i1 %8
}

; Function Attrs: mustprogress nounwind uwtable
define internal noundef zeroext i1 @_ZN5clang19RecursiveASTVisitorIN12_GLOBAL__N_113EHCodeVisitorEE22VisitConstantArrayTypeEPNS_17ConstantArrayTypeE(ptr noundef nonnull align 1 dereferenceable(1) %0, ptr noundef %1) #0 align 2 {
  %3 = alloca ptr, align 8
  %4 = alloca ptr, align 8
  store ptr %0, ptr %3, align 8
  store ptr %1, ptr %4, align 8
  ret i1 true
}

; Function Attrs: mustprogress nounwind uwtable
define internal noundef zeroext i1 @_ZN5clang19RecursiveASTVisitorIN12_GLOBAL__N_113EHCodeVisitorEE19WalkUpFromArrayTypeEPNS_9ArrayTypeE(ptr noundef nonnull align 1 dereferenceable(1) %0, ptr noundef %1) #0 align 2 {
  %3 = alloca i1, align 1
  %4 = alloca ptr, align 8
  %5 = alloca ptr, align 8
  store ptr %0, ptr %4, align 8
  store ptr %1, ptr %5, align 8
  %6 = load ptr, ptr %4, align 8
  br label %7

7:                                                ; preds = %2
  %8 = call noundef nonnull align 8 dereferenceable(16) ptr @_ZN5clang19RecursiveASTVisitorIN12_GLOBAL__N_113EHCodeVisitorEE10getDerivedEv(ptr noundef nonnull align 1 dereferenceable(1) %6)
  %9 = load ptr, ptr %5, align 8
  %10 = call noundef zeroext i1 @_ZN5clang19RecursiveASTVisitorIN12_GLOBAL__N_113EHCodeVisitorEE14WalkUpFromTypeEPNS_4TypeE(ptr noundef nonnull align 1 dereferenceable(1) %8, ptr noundef %9)
  br i1 %10, label %12, label %11

11:                                               ; preds = %7
  store i1 false, ptr %3, align 1
  br label %21

12:                                               ; preds = %7
  br label %13

13:                                               ; preds = %12
  br label %14

14:                                               ; preds = %13
  %15 = call noundef nonnull align 8 dereferenceable(16) ptr @_ZN5clang19RecursiveASTVisitorIN12_GLOBAL__N_113EHCodeVisitorEE10getDerivedEv(ptr noundef nonnull align 1 dereferenceable(1) %6)
  %16 = load ptr, ptr %5, align 8
  %17 = call noundef zeroext i1 @_ZN5clang19RecursiveASTVisitorIN12_GLOBAL__N_113EHCodeVisitorEE14VisitArrayTypeEPNS_9ArrayTypeE(ptr noundef nonnull align 1 dereferenceable(1) %15, ptr noundef %16)
  br i1 %17, label %19, label %18

18:                                               ; preds = %14
  store i1 false, ptr %3, align 1
  br label %21

19:                                               ; preds = %14
  br label %20

20:                                               ; preds = %19
  store i1 true, ptr %3, align 1
  br label %21

21:                                               ; preds = %20, %18, %11
  %22 = load i1, ptr %3, align 1
  ret i1 %22
}

; Function Attrs: mustprogress nounwind uwtable
define internal noundef zeroext i1 @_ZN5clang19RecursiveASTVisitorIN12_GLOBAL__N_113EHCodeVisitorEE23VisitArrayParameterTypeEPNS_18ArrayParameterTypeE(ptr noundef nonnull align 1 dereferenceable(1) %0, ptr noundef %1) #0 align 2 {
  %3 = alloca ptr, align 8
  %4 = alloca ptr, align 8
  store ptr %0, ptr %3, align 8
  store ptr %1, ptr %4, align 8
  ret i1 true
}

; Function Attrs: mustprogress nounwind uwtable
define internal noundef zeroext i1 @_ZN5clang19RecursiveASTVisitorIN12_GLOBAL__N_113EHCodeVisitorEE27WalkUpFromConstantArrayTypeEPNS_17ConstantArrayTypeE(ptr noundef nonnull align 1 dereferenceable(1) %0, ptr noundef %1) #0 align 2 {
  %3 = alloca i1, align 1
  %4 = alloca ptr, align 8
  %5 = alloca ptr, align 8
  store ptr %0, ptr %4, align 8
  store ptr %1, ptr %5, align 8
  %6 = load ptr, ptr %4, align 8
  br label %7

7:                                                ; preds = %2
  %8 = call noundef nonnull align 8 dereferenceable(16) ptr @_ZN5clang19RecursiveASTVisitorIN12_GLOBAL__N_113EHCodeVisitorEE10getDerivedEv(ptr noundef nonnull align 1 dereferenceable(1) %6)
  %9 = load ptr, ptr %5, align 8
  %10 = call noundef zeroext i1 @_ZN5clang19RecursiveASTVisitorIN12_GLOBAL__N_113EHCodeVisitorEE19WalkUpFromArrayTypeEPNS_9ArrayTypeE(ptr noundef nonnull align 1 dereferenceable(1) %8, ptr noundef %9)
  br i1 %10, label %12, label %11

11:                                               ; preds = %7
  store i1 false, ptr %3, align 1
  br label %21

12:                                               ; preds = %7
  br label %13

13:                                               ; preds = %12
  br label %14

14:                                               ; preds = %13
  %15 = call noundef nonnull align 8 dereferenceable(16) ptr @_ZN5clang19RecursiveASTVisitorIN12_GLOBAL__N_113EHCodeVisitorEE10getDerivedEv(ptr noundef nonnull align 1 dereferenceable(1) %6)
  %16 = load ptr, ptr %5, align 8
  %17 = call noundef zeroext i1 @_ZN5clang19RecursiveASTVisitorIN12_GLOBAL__N_113EHCodeVisitorEE22VisitConstantArrayTypeEPNS_17ConstantArrayTypeE(ptr noundef nonnull align 1 dereferenceable(1) %15, ptr noundef %16)
  br i1 %17, label %19, label %18

18:                                               ; preds = %14
  store i1 false, ptr %3, align 1
  br label %21

19:                                               ; preds = %14
  br label %20

20:                                               ; preds = %19
  store i1 true, ptr %3, align 1
  br label %21

21:                                               ; preds = %20, %18, %11
  %22 = load i1, ptr %3, align 1
  ret i1 %22
}

; Function Attrs: mustprogress nounwind uwtable
define linkonce_odr hidden noundef ptr @_ZNK5clang17ConstantArrayType11getSizeExprEv(ptr noundef nonnull align 16 dereferenceable(48) %0) #0 comdat align 2 {
  %2 = alloca ptr, align 8
  store ptr %0, ptr %2, align 8
  %3 = load ptr, ptr %2, align 8
  %4 = getelementptr inbounds nuw %"class.clang::Type", ptr %3, i32 0, i32 1
  %5 = load i32, ptr %4, align 16
  %6 = lshr i32 %5, 25
  %7 = and i32 %6, 1
  %8 = icmp ne i32 %7, 0
  br i1 %8, label %9, label %14

9:                                                ; preds = %1
  %10 = getelementptr inbounds nuw %"class.clang::ConstantArrayType", ptr %3, i32 0, i32 1
  %11 = load ptr, ptr %10, align 8
  %12 = getelementptr inbounds nuw %"struct.clang::ConstantArrayType::ExternalSize", ptr %11, i32 0, i32 1
  %13 = load ptr, ptr %12, align 8
  br label %15

14:                                               ; preds = %1
  br label %15

15:                                               ; preds = %14, %9
  %16 = phi ptr [ %13, %9 ], [ null, %14 ]
  ret ptr %16
}

; Function Attrs: mustprogress nounwind uwtable
define linkonce_odr hidden i64 @_ZNK5clang9ArrayType14getElementTypeEv(ptr noundef nonnull align 16 dereferenceable(40) %0) #0 comdat align 2 {
  %2 = alloca %"class.clang::QualType", align 8
  %3 = alloca ptr, align 8
  store ptr %0, ptr %3, align 8
  %4 = load ptr, ptr %3, align 8
  %5 = getelementptr inbounds nuw %"class.clang::ArrayType", ptr %4, i32 0, i32 2
  call void @llvm.memcpy.p0.p0.i64(ptr align 8 %2, ptr align 16 %5, i64 8, i1 false)
  %6 = getelementptr inbounds nuw %"class.clang::QualType", ptr %2, i32 0, i32 0
  %7 = getelementptr inbounds nuw %"class.llvm::PointerIntPair.162", ptr %6, i32 0, i32 0
  %8 = getelementptr inbounds nuw %"struct.llvm::detail::PunnedPointer.163", ptr %7, i32 0, i32 0
  %9 = load i64, ptr %8, align 8
  ret i64 %9
}

; Function Attrs: mustprogress nounwind uwtable
define internal noundef zeroext i1 @_ZN5clang19RecursiveASTVisitorIN12_GLOBAL__N_113EHCodeVisitorEE28WalkUpFromArrayParameterTypeEPNS_18ArrayParameterTypeE(ptr noundef nonnull align 1 dereferenceable(1) %0, ptr noundef %1) #0 align 2 {
  %3 = alloca i1, align 1
  %4 = alloca ptr, align 8
  %5 = alloca ptr, align 8
  store ptr %0, ptr %4, align 8
  store ptr %1, ptr %5, align 8
  %6 = load ptr, ptr %4, align 8
  br label %7

7:                                                ; preds = %2
  %8 = call noundef nonnull align 8 dereferenceable(16) ptr @_ZN5clang19RecursiveASTVisitorIN12_GLOBAL__N_113EHCodeVisitorEE10getDerivedEv(ptr noundef nonnull align 1 dereferenceable(1) %6)
  %9 = load ptr, ptr %5, align 8
  %10 = call noundef zeroext i1 @_ZN5clang19RecursiveASTVisitorIN12_GLOBAL__N_113EHCodeVisitorEE27WalkUpFromConstantArrayTypeEPNS_17ConstantArrayTypeE(ptr noundef nonnull align 1 dereferenceable(1) %8, ptr noundef %9)
  br i1 %10, label %12, label %11

11:                                               ; preds = %7
  store i1 false, ptr %3, align 1
  br label %21

12:                                               ; preds = %7
  br label %13

13:                                               ; preds = %12
  br label %14

14:                                               ; preds = %13
  %15 = call noundef nonnull align 8 dereferenceable(16) ptr @_ZN5clang19RecursiveASTVisitorIN12_GLOBAL__N_113EHCodeVisitorEE10getDerivedEv(ptr noundef nonnull align 1 dereferenceable(1) %6)
  %16 = load ptr, ptr %5, align 8
  %17 = call noundef zeroext i1 @_ZN5clang19RecursiveASTVisitorIN12_GLOBAL__N_113EHCodeVisitorEE23VisitArrayParameterTypeEPNS_18ArrayParameterTypeE(ptr noundef nonnull align 1 dereferenceable(1) %15, ptr noundef %16)
  br i1 %17, label %19, label %18

18:                                               ; preds = %14
  store i1 false, ptr %3, align 1
  br label %21

19:                                               ; preds = %14
  br label %20

20:                                               ; preds = %19
  store i1 true, ptr %3, align 1
  br label %21

21:                                               ; preds = %20, %18, %11
  %22 = load i1, ptr %3, align 1
  ret i1 %22
}

; Function Attrs: mustprogress nounwind uwtable
define internal noundef zeroext i1 @_ZNK5clang19RecursiveASTVisitorIN12_GLOBAL__N_113EHCodeVisitorEE23shouldTraversePostOrderEv(ptr noundef nonnull align 1 dereferenceable(1) %0) #0 align 2 {
  %2 = alloca ptr, align 8
  store ptr %0, ptr %2, align 8
  ret i1 false
}

; Function Attrs: mustprogress nounwind uwtable
define internal noundef nonnull align 8 dereferenceable(16) ptr @_ZN5clang19RecursiveASTVisitorIN12_GLOBAL__N_113EHCodeVisitorEE10getDerivedEv(ptr noundef nonnull align 1 dereferenceable(1) %0) #0 align 2 {
  %2 = alloca ptr, align 8
  store ptr %0, ptr %2, align 8
  %3 = load ptr, ptr %2, align 8
  ret ptr %3
}

; Function Attrs: mustprogress nounwind uwtable
define internal noundef zeroext i1 @_ZN5clang19RecursiveASTVisitorIN12_GLOBAL__N_113EHCodeVisitorEE26TraverseArrayParameterTypeEPNS_18ArrayParameterTypeE(ptr noundef nonnull align 1 dereferenceable(1) %0, ptr noundef %1) #0 align 2 {
  %3 = alloca i1, align 1
  %4 = alloca ptr, align 8
  %5 = alloca ptr, align 8
  %6 = alloca %"class.clang::QualType", align 8
  store ptr %0, ptr %4, align 8
  store ptr %1, ptr %5, align 8
  %7 = load ptr, ptr %4, align 8
  %8 = call noundef nonnull align 8 dereferenceable(16) ptr @_ZN5clang19RecursiveASTVisitorIN12_GLOBAL__N_113EHCodeVisitorEE10getDerivedEv(ptr noundef nonnull align 1 dereferenceable(1) %7)
  %9 = call noundef zeroext i1 @_ZNK5clang19RecursiveASTVisitorIN12_GLOBAL__N_113EHCodeVisitorEE23shouldTraversePostOrderEv(ptr noundef nonnull align 1 dereferenceable(1) %8)
  br i1 %9, label %18, label %10

10:                                               ; preds = %2
  br label %11

11:                                               ; preds = %10
  %12 = call noundef nonnull align 8 dereferenceable(16) ptr @_ZN5clang19RecursiveASTVisitorIN12_GLOBAL__N_113EHCodeVisitorEE10getDerivedEv(ptr noundef nonnull align 1 dereferenceable(1) %7)
  %13 = load ptr, ptr %5, align 8
  %14 = call noundef zeroext i1 @_ZN5clang19RecursiveASTVisitorIN12_GLOBAL__N_113EHCodeVisitorEE28WalkUpFromArrayParameterTypeEPNS_18ArrayParameterTypeE(ptr noundef nonnull align 1 dereferenceable(1) %12, ptr noundef %13)
  br i1 %14, label %16, label %15

15:                                               ; preds = %11
  store i1 false, ptr %3, align 1
  br label %58

16:                                               ; preds = %11
  br label %17

17:                                               ; preds = %16
  br label %18

18:                                               ; preds = %17, %2
  br label %19

19:                                               ; preds = %18
  %20 = call noundef nonnull align 8 dereferenceable(16) ptr @_ZN5clang19RecursiveASTVisitorIN12_GLOBAL__N_113EHCodeVisitorEE10getDerivedEv(ptr noundef nonnull align 1 dereferenceable(1) %7)
  %21 = load ptr, ptr %5, align 8
  %22 = call i64 @_ZNK5clang9ArrayType14getElementTypeEv(ptr noundef nonnull align 16 dereferenceable(40) %21)
  %23 = getelementptr inbounds nuw %"class.clang::QualType", ptr %6, i32 0, i32 0
  %24 = getelementptr inbounds nuw %"class.llvm::PointerIntPair.162", ptr %23, i32 0, i32 0
  %25 = getelementptr inbounds nuw %"struct.llvm::detail::PunnedPointer.163", ptr %24, i32 0, i32 0
  store i64 %22, ptr %25, align 8
  %26 = getelementptr inbounds nuw %"class.clang::QualType", ptr %6, i32 0, i32 0
  %27 = getelementptr inbounds nuw %"class.llvm::PointerIntPair.162", ptr %26, i32 0, i32 0
  %28 = getelementptr inbounds nuw %"struct.llvm::detail::PunnedPointer.163", ptr %27, i32 0, i32 0
  %29 = load i64, ptr %28, align 8
  %30 = call noundef zeroext i1 @_ZN5clang19RecursiveASTVisitorIN12_GLOBAL__N_113EHCodeVisitorEE12TraverseTypeENS_8QualTypeE(ptr noundef nonnull align 1 dereferenceable(1) %20, i64 %29)
  br i1 %30, label %32, label %31

31:                                               ; preds = %19
  store i1 false, ptr %3, align 1
  br label %58

32:                                               ; preds = %19
  br label %33

33:                                               ; preds = %32
  %34 = load ptr, ptr %5, align 8
  %35 = call noundef ptr @_ZNK5clang17ConstantArrayType11getSizeExprEv(ptr noundef nonnull align 16 dereferenceable(48) %34)
  %36 = icmp ne ptr %35, null
  br i1 %36, label %37, label %46

37:                                               ; preds = %33
  br label %38

38:                                               ; preds = %37
  %39 = call noundef nonnull align 8 dereferenceable(16) ptr @_ZN5clang19RecursiveASTVisitorIN12_GLOBAL__N_113EHCodeVisitorEE10getDerivedEv(ptr noundef nonnull align 1 dereferenceable(1) %7)
  %40 = load ptr, ptr %5, align 8
  %41 = call noundef ptr @_ZNK5clang17ConstantArrayType11getSizeExprEv(ptr noundef nonnull align 16 dereferenceable(48) %40)
  %42 = call noundef zeroext i1 @_ZN5clang19RecursiveASTVisitorIN12_GLOBAL__N_113EHCodeVisitorEE12TraverseStmtEPNS_4StmtEPN4llvm15SmallVectorImplINS6_14PointerIntPairIS5_Lj1EbNS6_21PointerLikeTypeTraitsIS5_EENS6_18PointerIntPairInfoIS5_Lj1ESA_EEEEEE(ptr noundef nonnull align 1 dereferenceable(1) %39, ptr noundef %41, ptr noundef null)
  br i1 %42, label %44, label %43

43:                                               ; preds = %38
  store i1 false, ptr %3, align 1
  br label %58

44:                                               ; preds = %38
  br label %45

45:                                               ; preds = %44
  br label %46

46:                                               ; preds = %45, %33
  %47 = call noundef nonnull align 8 dereferenceable(16) ptr @_ZN5clang19RecursiveASTVisitorIN12_GLOBAL__N_113EHCodeVisitorEE10getDerivedEv(ptr noundef nonnull align 1 dereferenceable(1) %7)
  %48 = call noundef zeroext i1 @_ZNK5clang19RecursiveASTVisitorIN12_GLOBAL__N_113EHCodeVisitorEE23shouldTraversePostOrderEv(ptr noundef nonnull align 1 dereferenceable(1) %47)
  br i1 %48, label %49, label %57

49:                                               ; preds = %46
  br label %50

50:                                               ; preds = %49
  %51 = call noundef nonnull align 8 dereferenceable(16) ptr @_ZN5clang19RecursiveASTVisitorIN12_GLOBAL__N_113EHCodeVisitorEE10getDerivedEv(ptr noundef nonnull align 1 dereferenceable(1) %7)
  %52 = load ptr, ptr %5, align 8
  %53 = call noundef zeroext i1 @_ZN5clang19RecursiveASTVisitorIN12_GLOBAL__N_113EHCodeVisitorEE28WalkUpFromArrayParameterTypeEPNS_18ArrayParameterTypeE(ptr noundef nonnull align 1 dereferenceable(1) %51, ptr noundef %52)
  br i1 %53, label %55, label %54

54:                                               ; preds = %50
  store i1 false, ptr %3, align 1
  br label %58

55:                                               ; preds = %50
  br label %56

56:                                               ; preds = %55
  br label %57

57:                                               ; preds = %56, %46
  store i1 true, ptr %3, align 1
  br label %58

58:                                               ; preds = %57, %54, %43, %31, %15
  %59 = load i1, ptr %3, align 1
  ret i1 %59
}